target datalayout = "e-m:e-p270:32:32-p271:32:32-p272:64:64-i64:64-i128:128-f80:128-n8:16:32:64-S128"
target triple = "x86_64-pc-linux-gnu"

%class.CommandData = type { %class.RAROptions, i8, i8, i32, i8, [2064 x i32], [2048 x i32], %class.StringList, %class.StringList, %class.StringList, %class.StringList, %class.StringList, %class.SecPassword, %"class.std::vector.0" }
%class.RAROptions = type { i32, i32, i8, i8, i8, i64, [2048 x i32], [2048 x i32], i32, i8, [2048 x i32], [2048 x i32], i32, i32, i32, i32, [2048 x i32], [2048 x i32], i8, i8, i8, [2048 x i32], i32, i32, i32, i32, i32, i32, i32, i32, i8, i8, i8, i8, i8, i32, i32, i8, i8, i8, i8, i8, i32, i32, i64, i32, i8, i8, i8, i32, i32, i8, i8, i8, i8, i32, i32, i8, i8, i8, i8, [128 x i32], [128 x i32], i8, i8, i8, i8, i8, %class.RarTime, %class.RarTime, %class.RarTime, i8, i8, i8, %class.RarTime, %class.RarTime, %class.RarTime, i8, i8, i8, i64, i64, i8, i8, i8, [16 x %struct.FilterMode], [2048 x i32], i32, i32, i32, i32, i32, i32, i8, [2048 x i32], i32, [2048 x i32], i32, i32, i64, ptr, ptr, ptr }
%class.RarTime = type { i64 }
%struct.FilterMode = type { i32, i32, i32 }
%class.StringList = type { %class.Array, i64, i64, [16 x i64], i64 }
%class.Array = type { ptr, i64, i64, i64 }
%class.SecPassword = type <{ %"class.std::vector", i8, [7 x i8] }>
%"class.std::vector" = type { %"struct.std::_Vector_base" }
%"struct.std::_Vector_base" = type { %"struct.std::_Vector_base<wchar_t, std::allocator<wchar_t>>::_Vector_impl" }
%"struct.std::_Vector_base<wchar_t, std::allocator<wchar_t>>::_Vector_impl" = type { %"struct.std::_Vector_base<wchar_t, std::allocator<wchar_t>>::_Vector_impl_data" }
%"struct.std::_Vector_base<wchar_t, std::allocator<wchar_t>>::_Vector_impl_data" = type { ptr, ptr, ptr }
%"class.std::vector.0" = type { %"struct.std::_Vector_base.1" }
%"struct.std::_Vector_base.1" = type { %"struct.std::_Vector_base<long, std::allocator<long>>::_Vector_impl" }
%"struct.std::_Vector_base<long, std::allocator<long>>::_Vector_impl" = type { %"struct.std::_Vector_base<long, std::allocator<long>>::_Vector_impl_data" }
%"struct.std::_Vector_base<long, std::allocator<long>>::_Vector_impl_data" = type { ptr, ptr, ptr }

@.str.5 = private unnamed_addr constant [5 x i32] [i32 99, i32 102, i32 103, i32 45, i32 0], align 4
@.str.6 = private unnamed_addr constant [5 x i32] [i32 105, i32 108, i32 111, i32 103, i32 0], align 4
@.str.7 = private unnamed_addr constant [3 x i32] [i32 115, i32 99, i32 0], align 4

; Function Attrs: mustprogress nounwind uwtable
define noundef zeroext i1 @_ZN11CommandData8IsSwitchEi(ptr noundef nonnull align 8 dereferenceable(100904) %0, i32 noundef %1) #1 align 2 {
  %3 = alloca ptr, align 8
  %4 = alloca i32, align 4
  store ptr %0, ptr %3, align 8
  store i32 %1, ptr %4, align 4
  %5 = load i32, ptr %4, align 4
  %6 = icmp eq i32 %5, 45
  ret i1 %6
}

; Function Attrs: mustprogress uwtable
define void @_ZN11CommandData13PreprocessArgEPKw(ptr noundef nonnull align 8 dereferenceable(100904) %0, ptr noundef %1) #0 align 2 {
  %3 = alloca ptr, align 8
  %4 = alloca ptr, align 8
  store ptr %0, ptr %3, align 8
  store ptr %1, ptr %4, align 8
  %5 = load ptr, ptr %3, align 8
  %6 = load ptr, ptr %4, align 8
  %7 = getelementptr inbounds i32, ptr %6, i64 0
  %8 = load i32, ptr %7, align 4
  %9 = call noundef zeroext i1 @_ZN11CommandData8IsSwitchEi(ptr noundef nonnull align 8 dereferenceable(100904) %5, i32 noundef %8)
  br i1 %9, label %10, label %61

10:                                               ; preds = %2
  %11 = getelementptr inbounds %class.CommandData, ptr %5, i32 0, i32 2
  %12 = load i8, ptr %11, align 1
  %13 = trunc i8 %12 to i1
  br i1 %13, label %61, label %14

14:                                               ; preds = %10
  %15 = load ptr, ptr %4, align 8
  %16 = getelementptr inbounds i32, ptr %15, i32 1
  store ptr %16, ptr %4, align 8
  %17 = load ptr, ptr %4, align 8
  %18 = getelementptr inbounds i32, ptr %17, i64 0
  %19 = load i32, ptr %18, align 4
  %20 = icmp eq i32 %19, 45
  br i1 %20, label %21, label %28

21:                                               ; preds = %14
  %22 = load ptr, ptr %4, align 8
  %23 = getelementptr inbounds i32, ptr %22, i64 1
  %24 = load i32, ptr %23, align 4
  %25 = icmp eq i32 %24, 0
  br i1 %25, label %26, label %28

26:                                               ; preds = %21
  %27 = getelementptr inbounds %class.CommandData, ptr %5, i32 0, i32 2
  store i8 1, ptr %27, align 1
  br label %28

28:                                               ; preds = %26, %21, %14
  %29 = load ptr, ptr %4, align 8
  %30 = call noundef i32 @_Z8wcsicompPKwS0_(ptr noundef %29, ptr noundef @.str.5)
  %31 = icmp eq i32 %30, 0
  br i1 %31, label %32, label %34

32:                                               ; preds = %28
  %33 = getelementptr inbounds %class.RAROptions, ptr %5, i32 0, i32 9
  store i8 1, ptr %33, align 4
  br label %34

34:                                               ; preds = %32, %28
  %35 = load ptr, ptr %4, align 8
  %36 = call noundef i32 @_Z9wcsnicompPKwS0_m(ptr noundef %35, ptr noundef @.str.6, i64 noundef 4)
  %37 = icmp eq i32 %36, 0
  br i1 %37, label %38, label %44

38:                                               ; preds = %34
  %39 = load ptr, ptr %4, align 8
  call void @_ZN11CommandData13ProcessSwitchEPKw(ptr noundef nonnull align 8 dereferenceable(100904) %5, ptr noundef %39)
  %40 = getelementptr inbounds %class.RAROptions, ptr %5, i32 0, i32 21
  %41 = getelementptr inbounds [2048 x i32], ptr %40, i64 0, i64 0
  %42 = getelementptr inbounds %class.RAROptions, ptr %5, i32 0, i32 14
  %43 = load i32, ptr %42, align 8
  call void @_Z14InitLogOptionsPKw11RAR_CHARSET(ptr noundef %41, i32 noundef %43)
  br label %44

44:                                               ; preds = %38, %34
  %45 = load ptr, ptr %4, align 8
  %46 = call noundef i32 @_Z9wcsnicompPKwS0_m(ptr noundef %45, ptr noundef @.str.7, i64 noundef 2)
  %47 = icmp eq i32 %46, 0
  br i1 %47, label %48, label %60

48:                                               ; preds = %44
  %49 = load ptr, ptr %4, align 8
  call void @_ZN11CommandData13ProcessSwitchEPKw(ptr noundef nonnull align 8 dereferenceable(100904) %5, ptr noundef %49)
  %50 = getelementptr inbounds %class.RAROptions, ptr %5, i32 0, i32 21
  %51 = getelementptr inbounds [2048 x i32], ptr %50, i64 0, i64 0
  %52 = load i32, ptr %51, align 4
  %53 = icmp ne i32 %52, 0
  br i1 %53, label %54, label %59

54:                                               ; preds = %48
  %55 = getelementptr inbounds %class.RAROptions, ptr %5, i32 0, i32 21
  %56 = getelementptr inbounds [2048 x i32], ptr %55, i64 0, i64 0
  %57 = getelementptr inbounds %class.RAROptions, ptr %5, i32 0, i32 14
  %58 = load i32, ptr %57, align 8
  call void @_Z14InitLogOptionsPKw11RAR_CHARSET(ptr noundef %56, i32 noundef %58)
  br label %59

59:                                               ; preds = %54, %48
  br label %60

60:                                               ; preds = %59, %44
  br label %72

61:                                               ; preds = %10, %2
  %62 = getelementptr inbounds %class.CommandData, ptr %5, i32 0, i32 5
  %63 = getelementptr inbounds [2064 x i32], ptr %62, i64 0, i64 0
  %64 = load i32, ptr %63, align 4
  %65 = icmp eq i32 %64, 0
  br i1 %65, label %66, label %71

66:                                               ; preds = %61
  %67 = getelementptr inbounds %class.CommandData, ptr %5, i32 0, i32 5
  %68 = getelementptr inbounds [2064 x i32], ptr %67, i64 0, i64 0
  %69 = load ptr, ptr %4, align 8
  %70 = call ptr @wcsncpy(ptr noundef %68, ptr noundef %69, i64 noundef 2064) #11
  br label %71

71:                                               ; preds = %66, %61
  br label %72

72:                                               ; preds = %71, %60
  ret void
}