; Function Attrs: mustprogress uwtable
define void @_ZN11CommandData13PreprocessArgEPKw(ptr noundef nonnull align 8 dereferenceable(100904) %0, ptr noundef %1) local_unnamed_addr #0 align 2 {
  %3 = load i32, ptr %1, align 4
  %4 = icmp eq i32 %3, 45
  br i1 %4, label %5, label %39

5:                                                ; preds = %2
  %6 = getelementptr inbounds nuw i8, ptr %0, i64 83465
  %7 = load i8, ptr %6, align 1
  %8 = trunc i8 %7 to i1
  br i1 %8, label %39, label %9

9:                                                ; preds = %5
  %10 = getelementptr inbounds nuw i8, ptr %1, i64 4
  %11 = load i32, ptr %10, align 4
  %12 = icmp eq i32 %11, 45
  br i1 %12, label %13, label %18

13:                                               ; preds = %9
  %14 = getelementptr inbounds nuw i8, ptr %1, i64 8
  %15 = load i32, ptr %14, align 4
  %16 = icmp eq i32 %15, 0
  br i1 %16, label %17, label %18

17:                                               ; preds = %13
  store i8 1, ptr %6, align 1
  br label %18

18:                                               ; preds = %17, %13, %9
  %19 = tail call noundef i32 @_Z8wcsicompPKwS0_(ptr noundef nonnull %10, ptr noundef nonnull @.str.5)
  %20 = icmp eq i32 %19, 0
  br i1 %20, label %21, label %23

21:                                               ; preds = %18
  %22 = getelementptr inbounds nuw i8, ptr %0, i64 16412
  store i8 1, ptr %22, align 4
  br label %23

23:                                               ; preds = %21, %18
  %24 = tail call noundef i32 @_Z9wcsnicompPKwS0_m(ptr noundef nonnull %10, ptr noundef nonnull @.str.6, i64 noundef 4)
  %25 = icmp eq i32 %24, 0
  br i1 %25, label %26, label %30

26:                                               ; preds = %23
  tail call void @_ZN11CommandData13ProcessSwitchEPKw(ptr noundef nonnull align 8 dereferenceable(100904) %0, ptr noundef nonnull %10)
  %27 = getelementptr inbounds nuw i8, ptr %0, i64 49204
  %28 = getelementptr inbounds nuw i8, ptr %0, i64 32808
  %29 = load i32, ptr %28, align 8
  tail call void @_Z14InitLogOptionsPKw11RAR_CHARSET(ptr noundef nonnull %27, i32 noundef %29)
  br label %30

30:                                               ; preds = %26, %23
  %31 = tail call noundef i32 @_Z9wcsnicompPKwS0_m(ptr noundef nonnull %10, ptr noundef nonnull @.str.7, i64 noundef 2)
  %32 = icmp eq i32 %31, 0
  br i1 %32, label %33, label %45

33:                                               ; preds = %30
  tail call void @_ZN11CommandData13ProcessSwitchEPKw(ptr noundef nonnull align 8 dereferenceable(100904) %0, ptr noundef nonnull %10)
  %34 = getelementptr inbounds nuw i8, ptr %0, i64 49204
  %35 = load i32, ptr %34, align 4
  %.not = icmp eq i32 %35, 0
  br i1 %.not, label %45, label %36

36:                                               ; preds = %33
  %37 = getelementptr inbounds nuw i8, ptr %0, i64 32808
  %38 = load i32, ptr %37, align 8
  tail call void @_Z14InitLogOptionsPKw11RAR_CHARSET(ptr noundef nonnull %34, i32 noundef %38)
  br label %45

39:                                               ; preds = %5, %2
  %40 = getelementptr inbounds nuw i8, ptr %0, i64 83476
  %41 = load i32, ptr %40, align 4
  %42 = icmp eq i32 %41, 0
  br i1 %42, label %43, label %45

43:                                               ; preds = %39
  %44 = tail call ptr @wcsncpy(ptr noundef nonnull %40, ptr noundef nonnull %1, i64 noundef 2064) #18
  br label %45

45:                                               ; preds = %39, %43, %30, %36, %33
  ret void
}